TN:
SF:/mnt/d/HPC_AVRK/SHA-256/sha256.cpp
FN:119,123,_Z9read_fileRKNSt7__cxx1112basic_stringIcSt11char_traitsIcESaIcEEE
FN:125,128,_Z10write_fileRKNSt7__cxx1112basic_stringIcSt11char_traitsIcESaIcEEERKSt6vectorIhSaIhEE
FN:131,145,main
FN:27,27,_Z4rotrjj
FN:28,28,_Z2chjjj
FN:29,29,_Z3majjjj
FN:30,30,_Z3ep0j
FN:31,31,_Z3ep1j
FN:32,32,_Z4sig0j
FN:33,33,_Z4sig1j
FN:37,61,_Z16sha256_transformPKhPj
FN:63,90,_Z6sha256RKSt6vectorIhSaIhEE
FN:94,117,_Z19sha256_stream_cryptRKSt6vectorIhSaIhEERS1_S3_m
FNDA:1,_Z9read_fileRKNSt7__cxx1112basic_stringIcSt11char_traitsIcESaIcEEE
FNDA:2,_Z10write_fileRKNSt7__cxx1112basic_stringIcSt11char_traitsIcESaIcEEERKSt6vectorIhSaIhEE
FNDA:1,main
FNDA:3514430592,_Z4rotrjj
FNDA:390492288,_Z2chjjj
FNDA:390492288,_Z3majjjj
FNDA:390492288,_Z3ep0j
FNDA:390492288,_Z3ep1j
FNDA:292869216,_Z4sig0j
FNDA:292869216,_Z4sig1j
FNDA:6101442,_Z16sha256_transformPKhPj
FNDA:6101442,_Z6sha256RKSt6vectorIhSaIhEE
FNDA:2,_Z19sha256_stream_cryptRKSt6vectorIhSaIhEERS1_S3_m
FNF:13
FNH:13
DA:27,3514430592
DA:28,390492288
DA:29,390492288
DA:30,390492288
DA:31,390492288
DA:32,292869216
DA:33,292869216
DA:37,6101442
DA:40,103724514
DA:41,97623072
DA:42,97623072
DA:44,298970658
DA:45,292869216
DA:47,6101442
DA:48,6101442
DA:50,396593730
DA:51,390492288
DA:52,390492288
DA:53,390492288
DA:54,390492288
DA:55,390492288
DA:56,390492288
DA:59,6101442
DA:60,6101442
DA:61,6101442
DA:63,6101442
DA:64,6101442
DA:69,6101442
DA:70,6101442
DA:72,6101442
DA:73,201347586
DA:74,195246144
DA:76,54912978
DA:77,48811536
DA:79,12202884
DA:80,6101442
DA:82,6101442
DA:83,54912978
DA:84,48811536
DA:85,48811536
DA:86,48811536
DA:87,48811536
DA:89,12202884
DA:90,6101442
DA:94,2
DA:99,2
DA:100,2
DA:102,6101444
DA:104,6101442
DA:106,54912978
DA:107,48811536
DA:109,54912978
DA:110,48811536
DA:112,6101442
DA:114,201347552
DA:115,195246110
DA:116,6101442
DA:117,2
DA:119,1
DA:120,1
DA:122,2
DA:123,1
DA:125,2
DA:126,2
DA:127,2
DA:128,2
DA:131,1
DA:132,1
DA:133,1
DA:135,2
DA:136,1
DA:138,1
DA:139,1
DA:141,1
DA:142,1
DA:144,1
DA:145,1
LF:77
LH:77
end_of_record
TN:
SF:/usr/include/c++/13/bits/alloc_traits.h
FNF:0
FNH:0
DA:482,42710125
DA:517,42710125
DA:538,445405249
DA:542,445405249
DA:574,54913043
DA:588,12202884
DA:948,18304330
DA:949,18304330
LF:8
LH:8
end_of_record
TN:
SF:/usr/include/c++/13/bits/allocator.h
FNF:0
FNH:0
DA:163,6101449
DA:168,36608655
DA:184,24405774
LF:3
LH:3
end_of_record
TN:
SF:/usr/include/c++/13/bits/basic_string.h
FN:641,650,_ZNSt7__cxx1112basic_stringIcSt11char_traitsIcESaIcEEC2IS3_EEPKcRKS3_
FNDA:3,_ZNSt7__cxx1112basic_stringIcSt11char_traitsIcESaIcEEC2IS3_EEPKcRKS3_
FNF:1
FNH:1
DA:355,2
DA:641,3
DA:642,3
DA:645,3
DA:646,0
DA:648,3
DA:649,3
DA:650,3
LF:8
LH:7
end_of_record
TN:
SF:/usr/include/c++/13/bits/basic_string.tcc
FN:221,252,_ZNSt7__cxx1112basic_stringIcSt11char_traitsIcESaIcEE12_M_constructIPKcEEvT_S8_St20forward_iterator_tag
FN:239,239,_ZZNSt7__cxx1112basic_stringIcSt11char_traitsIcESaIcEE12_M_constructIPKcEEvT_S8_St20forward_iterator_tagEN6_GuardC2EPS4_
FN:242,242,_ZZNSt7__cxx1112basic_stringIcSt11char_traitsIcESaIcEE12_M_constructIPKcEEvT_S8_St20forward_iterator_tagEN6_GuardD2Ev
FNDA:3,_ZNSt7__cxx1112basic_stringIcSt11char_traitsIcESaIcEE12_M_constructIPKcEEvT_S8_St20forward_iterator_tag
FNDA:3,_ZZNSt7__cxx1112basic_stringIcSt11char_traitsIcESaIcEE12_M_constructIPKcEEvT_S8_St20forward_iterator_tagEN6_GuardC2EPS4_
FNDA:3,_ZZNSt7__cxx1112basic_stringIcSt11char_traitsIcESaIcEE12_M_constructIPKcEEvT_S8_St20forward_iterator_tagEN6_GuardD2Ev
FNF:3
FNH:3
DA:221,3
DA:225,3
DA:227,3
DA:229,1
DA:230,1
DA:239,3
DA:242,3
DA:245,3
DA:247,3
DA:249,3
DA:251,3
DA:252,3
LF:12
LH:12
end_of_record
TN:
SF:/usr/include/c++/13/bits/char_traits.h
FN:136,137,_ZN9__gnu_cxx11char_traitsIcE2eqERKcS3_
FN:199,206,_ZN9__gnu_cxx11char_traitsIcE6lengthEPKc
FN:393,400,_ZNSt11char_traitsIcE6lengthEPKc
FN:451,452,_ZNSt11char_traitsIcE12to_char_typeERKi
FN:461,462,_ZNSt11char_traitsIcE11eq_int_typeERKiS2_
FN:466,467,_ZNSt11char_traitsIcE3eofEv
FNDA:0,_ZN9__gnu_cxx11char_traitsIcE2eqERKcS3_
FNDA:0,_ZN9__gnu_cxx11char_traitsIcE6lengthEPKc
FNDA:3,_ZNSt11char_traitsIcE6lengthEPKc
FNDA:97623055,_ZNSt11char_traitsIcE12to_char_typeERKi
FNDA:585738334,_ZNSt11char_traitsIcE11eq_int_typeERKiS2_
FNDA:97623057,_ZNSt11char_traitsIcE3eofEv
FNF:6
FNH:4
DA:136,0
DA:137,0
DA:199,0
DA:202,0
DA:203,0
DA:204,0
DA:205,0
DA:393,3
DA:396,3
DA:397,0
DA:399,3
DA:451,97623055
DA:452,97623055
DA:461,585738334
DA:462,585738334
DA:466,97623057
DA:467,97623057
LF:17
LH:9
end_of_record
TN:
SF:/usr/include/c++/13/bits/cpp_type_traits.h
FN:607,608,_ZSt12__miter_baseIN9__gnu_cxx17__normal_iteratorIPKhSt6vectorIhSaIhEEEEET_S8_
FN:607,608,_ZSt12__miter_baseIPKhET_S2_
FNDA:24405768,_ZSt12__miter_baseIN9__gnu_cxx17__normal_iteratorIPKhSt6vectorIhSaIhEEEEET_S8_
FNDA:2,_ZSt12__miter_baseIPKhET_S2_
FNF:2
FNH:2
DA:607,24405770
DA:608,24405770
LF:2
LH:2
end_of_record
TN:
SF:/usr/include/c++/13/bits/move.h
FN:51,52,_ZSt11__addressofIhEPT_RS0_
FN:70,71,_ZSt7forwardIcEOT_RNSt16remove_referenceIS0_E4typeE
FN:70,71,_ZSt7forwardIhEOT_RNSt16remove_referenceIS0_E4typeE
FN:97,98,_ZSt4moveIRhEONSt16remove_referenceIT_E4typeEOS2_
FNDA:6101444,_ZSt11__addressofIhEPT_RS0_
FNDA:292869193,_ZSt7forwardIcEOT_RNSt16remove_referenceIS0_E4typeE
FNDA:1067752350,_ZSt7forwardIhEOT_RNSt16remove_referenceIS0_E4typeE
FNDA:347782194,_ZSt4moveIRhEONSt16remove_referenceIT_E4typeEOS2_
FNF:4
FNH:4
DA:51,6101444
DA:52,6101444
DA:70,1360621543
DA:71,1360621543
DA:97,347782194
DA:98,347782194
LF:6
LH:6
end_of_record
TN:
SF:/usr/include/c++/13/bits/new_allocator.h
FN:104,104,_ZNSt15__new_allocatorIcED2Ev
FN:104,104,_ZNSt15__new_allocatorIhED2Ev
FN:126,152,_ZNSt15__new_allocatorIhE8allocateEmPKv
FN:156,173,_ZNSt15__new_allocatorIhE10deallocateEPhm
FNDA:3,_ZNSt15__new_allocatorIcED2Ev
FNDA:42710101,_ZNSt15__new_allocatorIhED2Ev
FNDA:42710125,_ZNSt15__new_allocatorIhE8allocateEmPKv
FNDA:42710125,_ZNSt15__new_allocatorIhE10deallocateEPhm
FNF:4
FNH:4
DA:88,6101449
DA:92,36608655
DA:104,42710104
DA:126,42710125
DA:134,42710125
DA:140,0
DA:151,42710125
DA:156,42710125
DA:172,42710125
DA:183,54913043
DA:191,445405249
DA:233,97623168
LF:12
LH:11
end_of_record
TN:
SF:/usr/include/c++/13/bits/stl_algobase.h
FN:1018,1018,_ZSt17__size_to_integerm
FN:1117,1130,_ZSt10__fill_n_aIPhmhET_S1_T0_RKT1_St26random_access_iterator_tag
FN:1152,1159,_ZSt6fill_nIPhmhET_S1_T0_RKT1_
FN:233,241,_ZSt3minImERKT_S2_S2_
FN:257,265,_ZSt3maxImERKT_S2_S2_
FN:316,318,_ZSt12__niter_baseIPKhET_S2_
FN:316,318,_ZSt12__niter_baseIPhET_S1_
FN:338,339,_ZSt12__niter_wrapIPhET_RKS1_S1_
FN:397,398,_ZNSt11__copy_moveILb0ELb0ESt26random_access_iterator_tagE12__assign_oneIhKhEEvPT_PT0_
FN:433,442,_ZNSt11__copy_moveILb0ELb1ESt26random_access_iterator_tagE8__copy_mIKhhEEPT0_PT_S7_S5_
FN:497,507,_ZSt14__copy_move_a2ILb0EPKhPhET1_T0_S4_S3_
FN:532,533,_ZSt14__copy_move_a1ILb0EPKhPhET1_T0_S4_S3_
FN:538,544,_ZSt13__copy_move_aILb0EN9__gnu_cxx17__normal_iteratorIPKhSt6vectorIhSaIhEEEEPhET1_T0_SA_S9_
FN:538,544,_ZSt13__copy_move_aILb0EPKhPhET1_T0_S4_S3_
FN:624,634,_ZSt4copyIN9__gnu_cxx17__normal_iteratorIPKhSt6vectorIhSaIhEEEEPhET0_T_SA_S9_
FN:624,634,_ZSt4copyIPKhPhET0_T_S4_S3_
FN:939,952,_ZSt9__fill_a1IhEN9__gnu_cxx11__enable_ifIXsrSt9__is_byteIT_E7__valueEvE6__typeEPS3_S7_RKS3_
FN:976,977,_ZSt8__fill_aIPhhEvT_S1_RKT0_
FNDA:6101444,_ZSt17__size_to_integerm
FNDA:6101444,_ZSt10__fill_n_aIPhmhET_S1_T0_RKT1_St26random_access_iterator_tag
FNDA:6101444,_ZSt6fill_nIPhmhET_S1_T0_RKT1_
FNDA:54913043,_ZSt3minImERKT_S2_S2_
FNDA:24405798,_ZSt3maxImERKT_S2_S2_
FNDA:2,_ZSt12__niter_baseIPKhET_S2_
FNDA:158637667,_ZSt12__niter_baseIPhET_S1_
FNDA:12202885,_ZSt12__niter_wrapIPhET_RKS1_S1_
FNDA:0,_ZNSt11__copy_moveILb0ELb0ESt26random_access_iterator_tagE12__assign_oneIhKhEEvPT_PT0_
FNDA:12202885,_ZNSt11__copy_moveILb0ELb1ESt26random_access_iterator_tagE8__copy_mIKhhEEPT0_PT_S7_S5_
FNDA:12202885,_ZSt14__copy_move_a2ILb0EPKhPhET1_T0_S4_S3_
FNDA:12202885,_ZSt14__copy_move_a1ILb0EPKhPhET1_T0_S4_S3_
FNDA:12202884,_ZSt13__copy_move_aILb0EN9__gnu_cxx17__normal_iteratorIPKhSt6vectorIhSaIhEEEEPhET1_T0_SA_S9_
FNDA:1,_ZSt13__copy_move_aILb0EPKhPhET1_T0_S4_S3_
FNDA:12202884,_ZSt4copyIN9__gnu_cxx17__normal_iteratorIPKhSt6vectorIhSaIhEEEEPhET0_T_SA_S9_
FNDA:1,_ZSt4copyIPKhPhET0_T_S4_S3_
FNDA:6101444,_ZSt9__fill_a1IhEN9__gnu_cxx11__enable_ifIXsrSt9__is_byteIT_E7__valueEvE6__typeEPS3_S7_RKS3_
FNDA:6101444,_ZSt8__fill_aIPhhEvT_S1_RKT0_
FNF:18
FNH:17
DA:233,54913043
DA:238,54913043
DA:239,0
DA:240,54913043
DA:257,24405798
DA:262,24405798
DA:263,3
DA:264,24405795
DA:316,158637669
DA:318,158637669
DA:338,12202885
DA:339,12202885
DA:397,0
DA:398,0
DA:433,12202885
DA:435,12202885
DA:436,12202885
DA:437,12202885
DA:438,0
DA:440,0
DA:441,12202885
DA:497,12202885
DA:506,12202885
DA:532,12202885
DA:533,12202885
DA:538,12202885
DA:540,12202885
DA:543,12202885
DA:624,12202885
DA:633,12202885
DA:939,6101444
DA:941,6101444
DA:950,6101444
DA:951,6101444
DA:952,6101444
DA:976,6101444
DA:977,6101444
DA:1018,6101444
DA:1117,6101444
DA:1123,6101444
DA:1124,0
DA:1128,6101444
DA:1129,6101444
DA:1152,6101444
DA:1157,6101444
DA:1158,12202888
LF:46
LH:40
end_of_record
TN:
SF:/usr/include/c++/13/bits/stl_construct.h
FN:109,120,_ZSt10_ConstructIhJEEvPT_DpOT0_
FN:172,172,_ZNSt12_Destroy_auxILb1EE9__destroyIPhEEvT_S3_
FN:182,197,_ZSt8_DestroyIPhEvT_S1_
FNDA:6101444,_ZSt10_ConstructIhJEEvPT_DpOT0_
FNDA:18304330,_ZNSt12_Destroy_auxILb1EE9__destroyIPhEEvT_S3_
FNDA:18304330,_ZSt8_DestroyIPhEvT_S1_
FNF:3
FNH:3
DA:109,6101444
DA:119,6101444
DA:120,6101444
DA:172,18304330
DA:182,18304330
DA:196,18304330
DA:197,18304330
LF:7
LH:7
end_of_record
TN:
SF:/usr/include/c++/13/bits/stl_iterator.h
FN:1076,1077,_ZN9__gnu_cxx17__normal_iteratorIPKhSt6vectorIhSaIhEEEC2ERKS2_
FN:1076,1077,_ZN9__gnu_cxx17__normal_iteratorIPhSt6vectorIhSaIhEEEC2ERKS1_
FN:1099,1100,_ZNK9__gnu_cxx17__normal_iteratorIPhSt6vectorIhSaIhEEEdeEv
FN:1157,1158,_ZNK9__gnu_cxx17__normal_iteratorIPhSt6vectorIhSaIhEEEmiEl
FN:1162,1163,_ZNK9__gnu_cxx17__normal_iteratorIPKhSt6vectorIhSaIhEEE4baseEv
FN:1162,1163,_ZNK9__gnu_cxx17__normal_iteratorIPhSt6vectorIhSaIhEEE4baseEv
FN:1334,1337,_ZN9__gnu_cxxmiIPhSt6vectorIhSaIhEEEENS_17__normal_iteratorIT_T0_E15difference_typeERKS8_SB_
FN:1357,1359,_ZSt12__niter_baseIPKhSt6vectorIhSaIhEEET_N9__gnu_cxx17__normal_iteratorIS5_T0_EE
FNDA:24405768,_ZN9__gnu_cxx17__normal_iteratorIPKhSt6vectorIhSaIhEEEC2ERKS2_
FNDA:939622090,_ZN9__gnu_cxx17__normal_iteratorIPhSt6vectorIhSaIhEEEC2ERKS1_
FNDA:445405249,_ZNK9__gnu_cxx17__normal_iteratorIPhSt6vectorIhSaIhEEEdeEv
FNDA:445405249,_ZNK9__gnu_cxx17__normal_iteratorIPhSt6vectorIhSaIhEEEmiEl
FNDA:24405768,_ZNK9__gnu_cxx17__normal_iteratorIPKhSt6vectorIhSaIhEEE4baseEv
FNDA:97623184,_ZNK9__gnu_cxx17__normal_iteratorIPhSt6vectorIhSaIhEEE4baseEv
FNDA:24405796,_ZN9__gnu_cxxmiIPhSt6vectorIhSaIhEEEENS_17__normal_iteratorIT_T0_E15difference_typeERKS8_SB_
FNDA:24405768,_ZSt12__niter_baseIPKhSt6vectorIhSaIhEEET_N9__gnu_cxx17__normal_iteratorIS5_T0_EE
FNF:8
FNH:8
DA:1076,964027858
DA:1077,964027858
DA:1099,445405249
DA:1100,445405249
DA:1157,445405249
DA:1158,445405249
DA:1162,122028952
DA:1163,122028952
DA:1334,24405796
DA:1337,24405796
DA:1357,24405768
DA:1359,24405768
LF:12
LH:12
end_of_record
TN:
SF:/usr/include/c++/13/bits/stl_iterator_base_funcs.h
FNF:0
FNH:0
DA:106,4
DA:151,8
DA:152,8
LF:3
LH:3
end_of_record
TN:
SF:/usr/include/c++/13/bits/stl_iterator_base_types.h
FNF:0
FNH:0
DA:240,6101449
LF:1
LH:1
end_of_record
TN:
SF:/usr/include/c++/13/bits/stl_uninitialized.h
FN:1114,1134,_ZSt14__relocate_a_1IhhENSt9enable_ifIXsrSt24__is_bitwise_relocatableIT_vE5valueEPS2_E4typeES4_S4_S4_RSaIT0_E
FN:1141,1150,_ZSt12__relocate_aIPhS0_SaIhEET0_T_S3_S2_RT1_
FN:145,147,_ZNSt20__uninitialized_copyILb1EE13__uninit_copyIN9__gnu_cxx17__normal_iteratorIPKhSt6vectorIhSaIhEEEEPhEET0_T_SC_SB_
FN:145,147,_ZNSt20__uninitialized_copyILb1EE13__uninit_copyIPKhPhEET0_T_S6_S5_
FN:163,186,_ZSt18uninitialized_copyIN9__gnu_cxx17__normal_iteratorIPKhSt6vectorIhSaIhEEEEPhET0_T_SA_S9_
FN:163,186,_ZSt18uninitialized_copyIPKhPhET0_T_S4_S3_
FN:366,374,_ZSt22__uninitialized_copy_aIN9__gnu_cxx17__normal_iteratorIPKhSt6vectorIhSaIhEEEEPhhET0_T_SA_S9_RSaIT1_E
FN:366,374,_ZSt22__uninitialized_copy_aIPKhPhhET0_T_S4_S3_RSaIT1_E
FN:660,671,_ZNSt27__uninitialized_default_n_1ILb1EE18__uninit_default_nIPhmEET_S3_T0_
FN:696,713,_ZSt25__uninitialized_default_nIPhmET_S1_T0_
FN:777,779,_ZSt27__uninitialized_default_n_aIPhmhET_S1_T0_RSaIT1_E
FNDA:48811594,_ZSt14__relocate_a_1IhhENSt9enable_ifIXsrSt24__is_bitwise_relocatableIT_vE5valueEPS2_E4typeES4_S4_S4_RSaIT0_E
FNDA:48811594,_ZSt12__relocate_aIPhS0_SaIhEET0_T_S3_S2_RT1_
FNDA:12202884,_ZNSt20__uninitialized_copyILb1EE13__uninit_copyIN9__gnu_cxx17__normal_iteratorIPKhSt6vectorIhSaIhEEEEPhEET0_T_SC_SB_
FNDA:1,_ZNSt20__uninitialized_copyILb1EE13__uninit_copyIPKhPhEET0_T_S6_S5_
FNDA:12202884,_ZSt18uninitialized_copyIN9__gnu_cxx17__normal_iteratorIPKhSt6vectorIhSaIhEEEEPhET0_T_SA_S9_
FNDA:1,_ZSt18uninitialized_copyIPKhPhET0_T_S4_S3_
FNDA:12202884,_ZSt22__uninitialized_copy_aIN9__gnu_cxx17__normal_iteratorIPKhSt6vectorIhSaIhEEEEPhhET0_T_SA_S9_RSaIT1_E
FNDA:1,_ZSt22__uninitialized_copy_aIPKhPhhET0_T_S4_S3_RSaIT1_E
FNDA:6101444,_ZNSt27__uninitialized_default_n_1ILb1EE18__uninit_default_nIPhmEET_S3_T0_
FNDA:6101444,_ZSt25__uninitialized_default_nIPhmET_S1_T0_
FNDA:6101444,_ZSt27__uninitialized_default_n_aIPhmhET_S1_T0_RSaIT1_E
FNF:11
FNH:11
DA:145,12202885
DA:147,12202885
DA:163,12202885
DA:174,12202885
DA:181,12202885
DA:185,12202885
DA:366,12202885
DA:373,12202885
DA:660,6101444
DA:662,6101444
DA:665,6101444
DA:666,6101444
DA:667,6101444
DA:668,6101444
DA:670,6101444
DA:696,6101444
DA:707,6101444
DA:712,6101444
DA:777,6101444
DA:779,6101444
DA:1114,48811594
DA:1118,48811594
DA:1119,48811594
DA:1131,24405795
DA:1133,48811594
DA:1141,48811594
DA:1147,48811594
DA:1149,48811594
LF:28
LH:28
end_of_record
TN:
SF:/usr/include/c++/13/bits/stl_vector.h
FN:1013,1019,_ZNSt6vectorIhSaIhEE6resizeEm
FN:1126,1130,_ZNSt6vectorIhSaIhEEixEm
FN:1145,1149,_ZNKSt6vectorIhSaIhEEixEm
FN:1233,1237,_ZNSt6vectorIhSaIhEE4backEv
FN:1265,1266,_ZNKSt6vectorIhSaIhEE4dataEv
FN:1298,1299,_ZNSt6vectorIhSaIhEE9push_backEOh
FN:137,143,_ZNSt12_Vector_baseIhSaIhEE12_Vector_implC2Ev
FN:146,148,_ZNSt12_Vector_baseIhSaIhEE12_Vector_implC2ERKS0_
FN:1605,1606,_ZNSt6vectorIhSaIhEE5clearEv
FN:1667,1681,_ZNSt6vectorIhSaIhEE19_M_range_initializeISt19istreambuf_iteratorIcSt11char_traitsIcEEEEvT_S7_St18input_iterator_tag
FN:1687,1698,_ZNSt6vectorIhSaIhEE19_M_range_initializeIPKhEEvT_S5_St20forward_iterator_tag
FN:1715,1720,_ZNSt6vectorIhSaIhEE21_M_default_initializeEm
FN:1896,1903,_ZNKSt6vectorIhSaIhEE12_M_check_lenEmPKc
FN:1907,1913,_ZNSt6vectorIhSaIhEE17_S_check_init_lenEmRKS0_
FN:1916,1925,_ZNSt6vectorIhSaIhEE11_S_max_sizeERKS0_
FN:1933,1942,_ZNSt6vectorIhSaIhEE15_M_erase_at_endEPh
FN:1990,1991,_ZNKSt6vectorIhSaIhEE11_M_data_ptrIhEEPT_S4_
FN:301,302,_ZNSt12_Vector_baseIhSaIhEE19_M_get_Tp_allocatorEv
FN:306,307,_ZNKSt12_Vector_baseIhSaIhEE19_M_get_Tp_allocatorEv
FN:315,315,_ZNSt12_Vector_baseIhSaIhEEC2Ev
FN:321,322,_ZNSt12_Vector_baseIhSaIhEEC2ERKS0_
FN:333,335,_ZNSt12_Vector_baseIhSaIhEEC2EmRKS0_
FN:367,371,_ZNSt12_Vector_baseIhSaIhEED2Ev
FN:378,382,_ZNSt12_Vector_baseIhSaIhEE11_M_allocateEm
FN:386,391,_ZNSt12_Vector_baseIhSaIhEE13_M_deallocateEPhm
FN:396,401,_ZNSt12_Vector_baseIhSaIhEE17_M_create_storageEm
FN:504,514,_ZNSt6vectorIhSaIhEE11_S_relocateEPhS2_S2_RS0_
FN:531,531,_ZNSt6vectorIhSaIhEEC2Ev
FN:556,558,_ZNSt6vectorIhSaIhEEC2EmRKS0_
FN:601,609,_ZNSt6vectorIhSaIhEEC2ERKS1_
FN:678,684,_ZNSt6vectorIhSaIhEEC2ESt16initializer_listIhERKS0_
FN:707,713,_ZNSt6vectorIhSaIhEEC2ISt19istreambuf_iteratorIcSt11char_traitsIcEEvEET_S7_RKS0_
FN:733,738,_ZNSt6vectorIhSaIhEED2Ev
FN:873,874,_ZNSt6vectorIhSaIhEE5beginEv
FN:883,884,_ZNKSt6vectorIhSaIhEE5beginEv
FN:893,894,_ZNSt6vectorIhSaIhEE3endEv
FN:903,904,_ZNKSt6vectorIhSaIhEE3endEv
FN:99,101,_ZNSt12_Vector_baseIhSaIhEE17_Vector_impl_dataC2Ev
FN:992,993,_ZNKSt6vectorIhSaIhEE4sizeEv
FN:998,999,_ZNKSt6vectorIhSaIhEE8max_sizeEv
FNDA:2,_ZNSt6vectorIhSaIhEE6resizeEm
FNDA:591839806,_ZNSt6vectorIhSaIhEEixEm
FNDA:195246110,_ZNKSt6vectorIhSaIhEEixEm
FNDA:445405249,_ZNSt6vectorIhSaIhEE4backEv
FNDA:2,_ZNKSt6vectorIhSaIhEE4dataEv
FNDA:347782194,_ZNSt6vectorIhSaIhEE9push_backEOh
FNDA:2,_ZNSt12_Vector_baseIhSaIhEE12_Vector_implC2Ev
FNDA:18304328,_ZNSt12_Vector_baseIhSaIhEE12_Vector_implC2ERKS0_
FNDA:0,_ZNSt6vectorIhSaIhEE5clearEv
FNDA:1,_ZNSt6vectorIhSaIhEE19_M_range_initializeISt19istreambuf_iteratorIcSt11char_traitsIcEEEEvT_S7_St18input_iterator_tag
FNDA:1,_ZNSt6vectorIhSaIhEE19_M_range_initializeIPKhEEvT_S5_St20forward_iterator_tag
FNDA:6101442,_ZNSt6vectorIhSaIhEE21_M_default_initializeEm
FNDA:24405798,_ZNKSt6vectorIhSaIhEE12_M_check_lenEmPKc
FNDA:6101443,_ZNSt6vectorIhSaIhEE17_S_check_init_lenEmRKS0_
FNDA:54913043,_ZNSt6vectorIhSaIhEE11_S_max_sizeERKS0_
FNDA:0,_ZNSt6vectorIhSaIhEE15_M_erase_at_endEPh
FNDA:2,_ZNKSt6vectorIhSaIhEE11_M_data_ptrIhEEPT_S4_
FNDA:85420254,_ZNSt12_Vector_baseIhSaIhEE19_M_get_Tp_allocatorEv
FNDA:61014484,_ZNKSt12_Vector_baseIhSaIhEE19_M_get_Tp_allocatorEv
FNDA:2,_ZNSt12_Vector_baseIhSaIhEEC2Ev
FNDA:2,_ZNSt12_Vector_baseIhSaIhEEC2ERKS0_
FNDA:18304326,_ZNSt12_Vector_baseIhSaIhEEC2EmRKS0_
FNDA:18304330,_ZNSt12_Vector_baseIhSaIhEED2Ev
FNDA:42710125,_ZNSt12_Vector_baseIhSaIhEE11_M_allocateEm
FNDA:42710128,_ZNSt12_Vector_baseIhSaIhEE13_M_deallocateEPhm
FNDA:18304326,_ZNSt12_Vector_baseIhSaIhEE17_M_create_storageEm
FNDA:48811594,_ZNSt6vectorIhSaIhEE11_S_relocateEPhS2_S2_RS0_
FNDA:2,_ZNSt6vectorIhSaIhEEC2Ev
FNDA:6101442,_ZNSt6vectorIhSaIhEEC2EmRKS0_
FNDA:12202884,_ZNSt6vectorIhSaIhEEC2ERKS1_
FNDA:1,_ZNSt6vectorIhSaIhEEC2ESt16initializer_listIhERKS0_
FNDA:1,_ZNSt6vectorIhSaIhEEC2ISt19istreambuf_iteratorIcSt11char_traitsIcEEvEET_S7_RKS0_
FNDA:18304330,_ZNSt6vectorIhSaIhEED2Ev
FNDA:24405796,_ZNSt6vectorIhSaIhEE5beginEv
FNDA:12202884,_ZNKSt6vectorIhSaIhEE5beginEv
FNDA:469811045,_ZNSt6vectorIhSaIhEE3endEv
FNDA:12202884,_ZNKSt6vectorIhSaIhEE3endEv
FNDA:18304330,_ZNSt12_Vector_baseIhSaIhEE17_Vector_impl_dataC2Ev
FNDA:524724112,_ZNKSt6vectorIhSaIhEE4sizeEv
FNDA:48811600,_ZNKSt6vectorIhSaIhEE8max_sizeEv
FNF:40
FNH:38
DA:99,18304330
DA:100,18304330
DA:101,18304330
DA:137,2
DA:142,2
DA:143,2
DA:146,18304328
DA:147,18304328
DA:148,18304328
DA:301,85420254
DA:302,85420254
DA:306,61014484
DA:307,61014484
DA:315,2
DA:321,2
DA:322,2
DA:333,18304326
DA:334,18304326
DA:335,18304326
DA:367,18304330
DA:369,18304330
DA:370,18304330
DA:371,18304330
DA:378,42710125
DA:381,85420250
DA:386,42710128
DA:389,42710128
DA:390,42710125
DA:391,42710128
DA:396,18304326
DA:398,18304326
DA:399,18304326
DA:400,18304326
DA:401,18304326
DA:504,48811594
DA:509,48811594
DA:531,2
DA:556,6101442
DA:557,6101442
DA:558,6101442
DA:601,12202884
DA:603,24405768
DA:605,12202884
DA:606,12202884
DA:608,12202884
DA:609,12202884
DA:678,1
DA:680,1
DA:682,1
DA:683,1
DA:684,1
DA:707,1
DA:709,1
DA:711,1
DA:712,1
DA:713,1
DA:733,18304330
DA:735,18304330
DA:736,18304330
DA:738,18304330
DA:873,24405796
DA:874,24405796
DA:883,12202884
DA:884,12202884
DA:893,469811045
DA:894,469811045
DA:903,12202884
DA:904,12202884
DA:992,524724112
DA:993,524724112
DA:998,48811600
DA:999,48811600
DA:1013,2
DA:1015,2
DA:1016,2
DA:1017,0
DA:1018,0
DA:1019,2
DA:1126,591839806
DA:1129,591839806
DA:1145,195246110
DA:1148,195246110
DA:1233,445405249
DA:1236,445405249
DA:1265,2
DA:1266,2
DA:1298,347782194
DA:1299,347782194
DA:1605,0
DA:1606,0
DA:1667,1
DA:1671,97623056
DA:1673,97623055
DA:1677,0
DA:1678,0
DA:1679,0
DA:1681,1
DA:1687,1
DA:1690,1
DA:1692,1
DA:1693,1
DA:1694,1
DA:1695,1
DA:1697,1
DA:1698,1
DA:1715,6101442
DA:1717,6101442
DA:1718,6101442
DA:1719,6101442
DA:1720,6101442
DA:1896,24405798
DA:1898,24405798
DA:1899,0
DA:1901,24405798
DA:1902,24405798
DA:1907,6101443
DA:1909,6101443
DA:1910,0
DA:1912,6101443
DA:1916,54913043
DA:1921,54913043
DA:1923,54913043
DA:1924,54913043
DA:1933,0
DA:1935,0
DA:1937,0
DA:1938,0
DA:1939,0
DA:1942,0
DA:1990,2
DA:1991,2
LF:131
LH:116
end_of_record
TN:
SF:/usr/include/c++/13/bits/streambuf_iterator.h
FN:118,119,_ZNSt19istreambuf_iteratorIcSt11char_traitsIcEEC2Ev
FN:133,134,_ZNSt19istreambuf_iteratorIcSt11char_traitsIcEEC2ERSi
FN:150,162,_ZNKSt19istreambuf_iteratorIcSt11char_traitsIcEEdeEv
FN:166,176,_ZNSt19istreambuf_iteratorIcSt11char_traitsIcEEppEv
FN:199,200,_ZNKSt19istreambuf_iteratorIcSt11char_traitsIcEE5equalERKS2_
FN:204,210,_ZNKSt19istreambuf_iteratorIcSt11char_traitsIcEE6_M_getEv
FN:213,214,_ZNKSt19istreambuf_iteratorIcSt11char_traitsIcEE9_M_at_eofEv
FN:217,221,_ZNSt19istreambuf_iteratorIcSt11char_traitsIcEE9_S_is_eofEi
FN:242,244,_ZStneIcSt11char_traitsIcEEbRKSt19istreambuf_iteratorIT_T0_ES7_
FNDA:1,_ZNSt19istreambuf_iteratorIcSt11char_traitsIcEEC2Ev
FNDA:1,_ZNSt19istreambuf_iteratorIcSt11char_traitsIcEEC2ERSi
FNDA:97623055,_ZNKSt19istreambuf_iteratorIcSt11char_traitsIcEEdeEv
FNDA:97623055,_ZNSt19istreambuf_iteratorIcSt11char_traitsIcEEppEv
FNDA:97623056,_ZNKSt19istreambuf_iteratorIcSt11char_traitsIcEE5equalERKS2_
FNDA:292869167,_ZNKSt19istreambuf_iteratorIcSt11char_traitsIcEE6_M_getEv
FNDA:195246112,_ZNKSt19istreambuf_iteratorIcSt11char_traitsIcEE9_M_at_eofEv
FNDA:585738334,_ZNSt19istreambuf_iteratorIcSt11char_traitsIcEE9_S_is_eofEi
FNDA:97623056,_ZStneIcSt11char_traitsIcEEbRKSt19istreambuf_iteratorIT_T0_ES7_
FNF:9
FNH:9
DA:118,1
DA:119,1
DA:133,1
DA:134,1
DA:150,97623055
DA:152,97623055
DA:161,195246110
DA:166,97623055
DA:173,97623055
DA:174,97623055
DA:175,97623055
DA:199,97623056
DA:200,97623056
DA:204,292869167
DA:206,292869167
DA:207,292869167
DA:208,1
DA:209,292869167
DA:213,195246112
DA:214,195246112
DA:217,585738334
DA:219,585738334
DA:220,585738334
DA:242,97623056
DA:244,97623056
LF:25
LH:25
end_of_record
TN:
SF:/usr/include/c++/13/bits/vector.tcc
FN:111,127,_ZNSt6vectorIhSaIhEE12emplace_backIJcEEERhDpOT_
FN:111,127,_ZNSt6vectorIhSaIhEE12emplace_backIJhEEERhDpOT_
FN:445,524,_ZNSt6vectorIhSaIhEE17_M_realloc_insertIJcEEEvN9__gnu_cxx17__normal_iteratorIPhS1_EEDpOT_
FN:445,524,_ZNSt6vectorIhSaIhEE17_M_realloc_insertIJhEEEvN9__gnu_cxx17__normal_iteratorIPhS1_EEDpOT_
FN:634,710,_ZNSt6vectorIhSaIhEE17_M_default_appendEm
FNDA:97623055,_ZNSt6vectorIhSaIhEE12emplace_backIJcEEERhDpOT_
FNDA:347782194,_ZNSt6vectorIhSaIhEE12emplace_backIJhEEERhDpOT_
FNDA:28,_ZNSt6vectorIhSaIhEE17_M_realloc_insertIJcEEEvN9__gnu_cxx17__normal_iteratorIPhS1_EEDpOT_
FNDA:24405768,_ZNSt6vectorIhSaIhEE17_M_realloc_insertIJhEEEvN9__gnu_cxx17__normal_iteratorIPhS1_EEDpOT_
FNDA:2,_ZNSt6vectorIhSaIhEE17_M_default_appendEm
FNF:5
FNH:5
DA:111,445405249
DA:114,445405249
DA:117,420999453
DA:119,420999453
DA:123,24405796
DA:125,445405249
DA:445,24405796
DA:455,24405796
DA:456,24405796
DA:457,24405796
DA:458,24405796
DA:459,24405796
DA:460,24405796
DA:468,24405796
DA:475,24405796
DA:480,24405796
DA:481,24405796
DA:483,24405796
DA:485,24405796
DA:486,24405796
DA:519,24405796
DA:520,24405796
DA:521,24405796
DA:522,24405796
DA:523,24405796
DA:524,24405796
DA:634,2
DA:637,2
DA:639,2
DA:640,2
DA:641,2
DA:643,2
DA:644,0
DA:646,2
DA:649,0
DA:650,0
DA:651,0
DA:658,2
DA:659,2
DA:662,2
DA:663,2
DA:668,2
DA:669,2
DA:671,0
DA:673,0
DA:674,0
DA:676,2
DA:677,2
DA:703,2
DA:704,2
DA:705,2
DA:706,2
DA:707,2
DA:710,2
LF:54
LH:47
end_of_record
TN:
SF:/usr/include/c++/13/ext/alloc_traits.h
FNF:0
FNH:0
DA:98,12202884
LF:1
LH:1
end_of_record
TN:
SF:/usr/include/c++/13/initializer_list
FN:69,69,_ZNKSt16initializer_listIhE4sizeEv
FN:73,73,_ZNKSt16initializer_listIhE5beginEv
FN:77,77,_ZNKSt16initializer_listIhE3endEv
FNDA:1,_ZNKSt16initializer_listIhE4sizeEv
FNDA:2,_ZNKSt16initializer_listIhE5beginEv
FNDA:1,_ZNKSt16initializer_listIhE3endEv
FNF:3
FNH:3
DA:69,1
DA:73,2
DA:77,1
LF:3
LH:3
end_of_record
TN:
SF:/usr/include/c++/13/new
FN:174,175,_ZnwmPv
FNDA:451506693,_ZnwmPv
FNF:1
FNH:1
DA:174,451506693
DA:175,451506693
LF:2
LH:2
end_of_record
TN:
SF:/usr/include/x86_64-linux-gnu/c++/13/bits/c++config.h
FN:540,551,_ZSt23__is_constant_evaluatedv
FNDA:3,_ZSt23__is_constant_evaluatedv
FNF:1
FNH:1
DA:540,3
DA:547,3
LF:2
LH:2
end_of_record
